CCS PCH C Compiler, Version 4.140, 31805               12-fev-14 17:04

               Filename:   D:\Eletronica\Projetos\BLDC\main.lst

               ROM used:   646 bytes (2%)
                           Largest free fragment is 32118
               RAM used:   28 (2%) at main() level
                           37 (2%) worst case
               Stack:     3 worst case (2 in main + 1 for interrupts)

*
0000:  GOTO   0208
*
0008:  MOVWF  04
000A:  MOVFF  FD8,05
000E:  MOVFF  FE0,06
0012:  MOVLB  0
0014:  MOVFF  FE9,0C
0018:  MOVFF  FEA,07
001C:  MOVFF  FE1,08
0020:  MOVFF  FE2,09
0024:  MOVFF  FD9,0A
0028:  MOVFF  FDA,0B
002C:  MOVFF  FF3,12
0030:  MOVFF  FF4,13
0034:  MOVFF  FFA,14
0038:  MOVFF  FF5,15
003C:  MOVFF  FF6,16
0040:  MOVFF  FF7,17
0044:  MOVFF  00,0E
0048:  MOVFF  01,0F
004C:  MOVFF  02,10
0050:  MOVFF  03,11
0054:  BTFSS  FF2.4
0056:  GOTO   0060
005A:  BTFSC  FF2.1
005C:  GOTO   00AE
0060:  MOVFF  0E,00
0064:  MOVFF  0F,01
0068:  MOVFF  10,02
006C:  MOVFF  11,03
0070:  MOVFF  0C,FE9
0074:  MOVFF  07,FEA
0078:  BSF    07.7
007A:  MOVFF  08,FE1
007E:  MOVFF  09,FE2
0082:  MOVFF  0A,FD9
0086:  MOVFF  0B,FDA
008A:  MOVFF  12,FF3
008E:  MOVFF  13,FF4
0092:  MOVFF  14,FFA
0096:  MOVFF  15,FF5
009A:  MOVFF  16,FF6
009E:  MOVFF  17,FF7
00A2:  MOVF   04,W
00A4:  MOVFF  06,FE0
00A8:  MOVFF  05,FD8
00AC:  RETFIE 0
.................... /* 
....................  * main.c 
....................  * 
....................  *  Created on: 03/02/2014 
....................  *      Author: cuki 
....................  */ 
.................... #include<18F45K20.h> 
.................... //////// Standard Header file for the PIC18F45K20 device //////////////// 
.................... #device PIC18F45K20 
.................... #list 
....................  
....................  
.................... #fuses H4 
....................  
.................... #use delay(crystal=15MHz, clock=60MHz) 
*
00C4:  CLRF   FEA
00C6:  MOVLW  1C
00C8:  MOVWF  FE9
00CA:  MOVF   FEF,W
00CC:  BZ    00EA
00CE:  MOVLW  13
00D0:  MOVWF  01
00D2:  CLRF   00
00D4:  DECFSZ 00,F
00D6:  BRA    00D4
00D8:  DECFSZ 01,F
00DA:  BRA    00D2
00DC:  MOVLW  73
00DE:  MOVWF  00
00E0:  DECFSZ 00,F
00E2:  BRA    00E0
00E4:  NOP   
00E6:  DECFSZ FEF,F
00E8:  BRA    00CE
00EA:  GOTO   0242 (RETURN)
.................... #use rs232(xmit=PIN_C6, baud=9600) 
00EE:  BCF    F94.6
00F0:  BCF    F8B.6
00F2:  MOVLW  08
00F4:  MOVWF  01
00F6:  BRA    00F8
00F8:  NOP   
00FA:  BSF    01.7
00FC:  BRA    011A
00FE:  BCF    01.7
0100:  RRCF   22,F
0102:  BTFSC  FD8.0
0104:  BSF    F8B.6
0106:  BTFSS  FD8.0
0108:  BCF    F8B.6
010A:  BSF    01.6
010C:  BRA    011A
010E:  BCF    01.6
0110:  DECFSZ 01,F
0112:  BRA    0100
0114:  BRA    0116
0116:  NOP   
0118:  BSF    F8B.6
011A:  MOVLW  02
011C:  MOVWF  00
011E:  CLRF   FE9
0120:  DECFSZ FE9,F
0122:  BRA    0120
0124:  DECFSZ 00,F
0126:  BRA    011E
0128:  BRA    012A
012A:  BTFSC  01.7
012C:  BRA    00FE
012E:  BTFSC  01.6
0130:  BRA    010E
0132:  RETURN 0
....................  
.................... #define bto PIN_B0 
.................... //#define A 17 
.................... //#define B 34 
.................... //#define C 12 
....................  
.................... int cont = 100; 
.................... short ctrl = FALSE; 
....................  
.................... enum estadoTypes { 
.................... 	A, B, C 
.................... } estados; 
....................  
.................... #INT_EXT 
.................... void ext_isr() { 
.................... 	clear_interrupt(INT_EXT); 
*
00AE:  BCF    FF2.1
.................... 	cont -= 10; 
00B0:  MOVLW  0A
00B2:  SUBWF  19,F
.................... 	if (!cont) 
00B4:  MOVF   19,F
00B6:  BNZ   00BC
.................... 		cont = 100; 
00B8:  MOVLW  64
00BA:  MOVWF  19
.................... 	ctrl = TRUE; 
00BC:  BSF    1A.0
.................... } 
....................  
00BE:  BCF    FF2.1
00C0:  GOTO   0060
.................... int main(void) { 
*
0208:  CLRF   FF8
020A:  BCF    FD0.7
020C:  BSF    07.7
020E:  CLRF   FEA
0210:  CLRF   FE9
0212:  BCF    F94.6
0214:  BSF    F8B.6
0216:  MOVLW  64
0218:  MOVWF  19
021A:  BCF    1A.0
021C:  MOVLW  00
021E:  MOVWF  F7E
0220:  BCF    FC1.4
0222:  BCF    FC1.5
0224:  MOVF   F7F,W
0226:  ANDLW  E0
0228:  MOVWF  F7F
022A:  BCF    F79.5
022C:  BCF    F79.4
022E:  CLRF   F7A
0230:  CLRF   F7B
....................  
.................... 	output_d(0); 
0232:  CLRF   F95
0234:  CLRF   F8C
....................  
.................... 	clear_interrupt(INT_EXT); 
0236:  BCF    FF2.1
.................... 	enable_interrupts(INT_EXT | GLOBAL); 
0238:  MOVLW  D0
023A:  IORWF  FF2,F
....................  
.................... 	while (TRUE) { 
....................  
.................... 		delay_ms(cont); 
023C:  MOVFF  19,1C
0240:  BRA    00C4
.................... 		switch (estados++) { 
0242:  MOVF   1B,W
0244:  INCF   1B,F
0246:  XORLW  00
0248:  BZ    0254
024A:  XORLW  01
024C:  BZ    025C
024E:  XORLW  03
0250:  BZ    0264
0252:  BRA    026C
.................... 		case A: 
.................... 			output_d(17); 
0254:  CLRF   F95
0256:  MOVLW  11
0258:  MOVWF  F8C
.................... 			break; 
025A:  BRA    026C
.................... 		case B: 
.................... 			output_d(34); 
025C:  CLRF   F95
025E:  MOVLW  22
0260:  MOVWF  F8C
.................... 			break; 
0262:  BRA    026C
.................... 		case C: 
.................... 			output_d(12); 
0264:  CLRF   F95
0266:  MOVLW  0C
0268:  MOVWF  F8C
.................... 			estados = A; 
026A:  CLRF   1B
.................... 			break; 
.................... 		default: 
.................... 		} 
.................... 		if (ctrl) { 
026C:  BTFSS  1A.0
026E:  BRA    0282
.................... 			ctrl = FALSE; 
0270:  BCF    1A.0
.................... 			printf("\f%d", cont); 
0272:  MOVLW  0C
0274:  MOVWF  22
0276:  RCALL  00EE
0278:  MOVFF  19,1C
027C:  MOVLW  18
027E:  MOVWF  1D
0280:  BRA    015C
.................... 		} 
.................... 	} 
0282:  BRA    023C
.................... 	return 0; 
0284:  MOVLW  00
0286:  MOVWF  01
.................... } 
0288:  SLEEP 

Configuration Fuses:
   Word  1: C600   H4 FCMEN IESO
   Word  2: 1E1E   PUT BROWNOUT BORV18 NOWDT WDT32768
   Word  3: 8F00   CCP2C1 PBADEN LPT1OSC HFOFST MCLR
   Word  4: 0081   STVREN NOLVP NOXINST NODEBUG
   Word  5: C00F   NOPROTECT NOCPB NOCPD
   Word  6: E00F   NOWRT NOWRTC NOWRTB NOWRTD
   Word  7: 400F   NOEBTR NOEBTRB
