CCS PCH C Compiler, Version 4.140, 31805               06-fev-14 10:01

               Filename:   D:\Eletronica\Projetos\BLDC\main.lst

               ROM used:   356 bytes (1%)
                           Largest free fragment is 32408
               RAM used:   31 (2%) at main() level
                           32 (2%) worst case
               Stack:     2 worst case (1 in main + 1 for interrupts)

*
0000:  GOTO   00F6
*
0008:  MOVWF  04
000A:  MOVFF  FD8,05
000E:  MOVFF  FE0,06
0012:  MOVLB  0
0014:  MOVFF  FE9,0C
0018:  MOVFF  FEA,07
001C:  MOVFF  FE1,08
0020:  MOVFF  FE2,09
0024:  MOVFF  FD9,0A
0028:  MOVFF  FDA,0B
002C:  MOVFF  FF3,12
0030:  MOVFF  FF4,13
0034:  MOVFF  FFA,14
0038:  MOVFF  FF5,15
003C:  MOVFF  FF6,16
0040:  MOVFF  FF7,17
0044:  MOVFF  00,0E
0048:  MOVFF  01,0F
004C:  MOVFF  02,10
0050:  MOVFF  03,11
0054:  BTFSS  FF2.4
0056:  GOTO   0060
005A:  BTFSC  FF2.1
005C:  GOTO   00AE
0060:  MOVFF  0E,00
0064:  MOVFF  0F,01
0068:  MOVFF  10,02
006C:  MOVFF  11,03
0070:  MOVFF  0C,FE9
0074:  MOVFF  07,FEA
0078:  BSF    07.7
007A:  MOVFF  08,FE1
007E:  MOVFF  09,FE2
0082:  MOVFF  0A,FD9
0086:  MOVFF  0B,FDA
008A:  MOVFF  12,FF3
008E:  MOVFF  13,FF4
0092:  MOVFF  14,FFA
0096:  MOVFF  15,FF5
009A:  MOVFF  16,FF6
009E:  MOVFF  17,FF7
00A2:  MOVF   04,W
00A4:  MOVFF  06,FE0
00A8:  MOVFF  05,FD8
00AC:  RETFIE 0
.................... /* 
....................  * main.c 
....................  * 
....................  *  Created on: 03/02/2014 
....................  *      Author: cuki 
....................  */ 
.................... #include<18F45K20.h> 
.................... //////// Standard Header file for the PIC18F45K20 device //////////////// 
.................... #device PIC18F45K20 
.................... #list 
....................  
....................  
.................... #fuses HS 
....................  
.................... #use delay(clock=15MHz) 
*
00CC:  MOVLW  06
00CE:  SUBWF  1F,F
00D0:  BNC   00F4
00D2:  CLRF   FEA
00D4:  MOVLW  1F
00D6:  MOVWF  FE9
00D8:  MOVLW  FC
00DA:  ANDWF  FEF,F
00DC:  BCF    FD8.0
00DE:  RRCF   FEF,F
00E0:  RRCF   FEF,F
00E2:  MOVF   FEF,W
00E4:  BZ    00F4
00E6:  MOVLW  03
00E8:  MOVWF  00
00EA:  DECFSZ 00,F
00EC:  BRA    00EA
00EE:  BRA    00F0
00F0:  DECFSZ FEF,F
00F2:  BRA    00E6
00F4:  RETURN 0
.................... #use rs232(xmit=PIN_C6, baud=9600) 
....................  
.................... int cont = 1; 
.................... int cont2 = 0; 
.................... long tempo = 65000; 
.................... short ctrl = FALSE; 
.................... short trigger = FALSE; 
....................  
.................... #INT_EXT 
.................... void isr_ext() { 
.................... 	clear_interrupt(INT_EXT); 
*
00AE:  BCF    FF2.1
.................... 	tempo -= 1000; 
00B0:  MOVLW  E8
00B2:  SUBWF  1B,F
00B4:  MOVLW  03
00B6:  SUBWFB 1C,F
.................... 	if (!tempo) 
00B8:  MOVF   1B,W
00BA:  IORWF  1C,W
00BC:  BNZ   00C6
.................... 		tempo = 65000; 
00BE:  MOVLW  FD
00C0:  MOVWF  1C
00C2:  MOVLW  E8
00C4:  MOVWF  1B
.................... } 
....................  
00C6:  BCF    FF2.1
00C8:  GOTO   0060
.................... int main(void) { 
*
00F6:  CLRF   FF8
00F8:  BCF    FD0.7
00FA:  BSF    07.7
00FC:  CLRF   FEA
00FE:  CLRF   FE9
0100:  BCF    F94.6
0102:  BSF    F8B.6
0104:  MOVLW  01
0106:  MOVWF  19
0108:  CLRF   1A
010A:  MOVLW  FD
010C:  MOVWF  1C
010E:  MOVLW  E8
0110:  MOVWF  1B
0112:  BCF    1D.0
0114:  BCF    1D.1
0116:  MOVLW  00
0118:  MOVWF  F7E
011A:  BCF    FC1.4
011C:  BCF    FC1.5
011E:  MOVF   F7F,W
0120:  ANDLW  E0
0122:  MOVWF  F7F
0124:  BCF    F79.5
0126:  BCF    F79.4
0128:  CLRF   F7A
012A:  CLRF   F7B
....................  
.................... 	clear_interrupt(INT_EXT); 
012C:  BCF    FF2.1
.................... 	enable_interrupts(INT_EXT); 
012E:  BSF    FF2.4
.................... 	enable_interrupts(GLOBAL); 
0130:  MOVLW  C0
0132:  IORWF  FF2,F
....................  
.................... 	while (TRUE) { 
.................... 		cont <<= 1; 
0134:  BCF    FD8.0
0136:  RLCF   19,F
.................... 		if (cont == 8) 
0138:  MOVF   19,W
013A:  SUBLW  08
013C:  BNZ   0142
.................... 			cont = 1; 
013E:  MOVLW  01
0140:  MOVWF  19
.................... 		output_d(cont); 
0142:  CLRF   F95
0144:  MOVFF  19,F8C
.................... 		delay_us(tempo); 
0148:  MOVFF  1C,1E
014C:  INCF   1E,F
014E:  DECF   1E,F
0150:  BTFSC  FD8.2
0152:  BRA    015A
0154:  SETF   1F
0156:  RCALL  00CC
0158:  BRA    014E
015A:  MOVFF  1B,1F
015E:  RCALL  00CC
.................... 	} 
0160:  BRA    0134
.................... 	return 0; 
0162:  MOVLW  00
0164:  MOVWF  01
.................... } 
....................  
0166:  SLEEP 

Configuration Fuses:
   Word  1: C200   HS FCMEN IESO
   Word  2: 1E1E   PUT BROWNOUT BORV18 NOWDT WDT32768
   Word  3: 8F00   CCP2C1 PBADEN LPT1OSC HFOFST MCLR
   Word  4: 0081   STVREN NOLVP NOXINST NODEBUG
   Word  5: C00F   NOPROTECT NOCPB NOCPD
   Word  6: E00F   NOWRT NOWRTC NOWRTB NOWRTD
   Word  7: 400F   NOEBTR NOEBTRB
