CCS PCH C Compiler, Version 4.140, 31805               24-fev-14 07:57

               Filename:   D:\Eletronica\Projetos\BLDC\main.lst

               ROM used:   726 bytes (2%)
                           Largest free fragment is 32038
               RAM used:   30 (2%) at main() level
                           40 (3%) worst case
               Stack:     4 worst case (2 in main + 2 for interrupts)

*
0000:  GOTO   024C
*
0008:  MOVWF  04
000A:  MOVFF  FD8,05
000E:  MOVFF  FE0,06
0012:  MOVLB  0
0014:  MOVFF  FE9,0C
0018:  MOVFF  FEA,07
001C:  MOVFF  FE1,08
0020:  MOVFF  FE2,09
0024:  MOVFF  FD9,0A
0028:  MOVFF  FDA,0B
002C:  MOVFF  FF3,12
0030:  MOVFF  FF4,13
0034:  MOVFF  FFA,14
0038:  MOVFF  FF5,15
003C:  MOVFF  FF6,16
0040:  MOVFF  FF7,17
0044:  MOVFF  00,0E
0048:  MOVFF  01,0F
004C:  MOVFF  02,10
0050:  MOVFF  03,11
0054:  BTFSS  FF2.4
0056:  GOTO   0060
005A:  BTFSC  FF2.1
005C:  GOTO   00D6
0060:  MOVFF  0E,00
0064:  MOVFF  0F,01
0068:  MOVFF  10,02
006C:  MOVFF  11,03
0070:  MOVFF  0C,FE9
0074:  MOVFF  07,FEA
0078:  BSF    07.7
007A:  MOVFF  08,FE1
007E:  MOVFF  09,FE2
0082:  MOVFF  0A,FD9
0086:  MOVFF  0B,FDA
008A:  MOVFF  12,FF3
008E:  MOVFF  13,FF4
0092:  MOVFF  14,FFA
0096:  MOVFF  15,FF5
009A:  MOVFF  16,FF6
009E:  MOVFF  17,FF7
00A2:  MOVF   04,W
00A4:  MOVFF  06,FE0
00A8:  MOVFF  05,FD8
00AC:  RETFIE 0
.................... /* 
....................  * main.c 
....................  * 
....................  *  Created on: 03/02/2014 
....................  *      Author: cuki 
....................  */ 
.................... #include<18F452.h> 
.................... //////// Standard Header file for the PIC18F452 device //////////////// 
.................... #device PIC18F452 
.................... #list 
....................  
....................  
.................... #fuses H4 
....................  
.................... #use delay(crystal=8MHz, clock=32MHz) 
*
00AE:  CLRF   FEA
00B0:  MOVLW  27
00B2:  MOVWF  FE9
00B4:  MOVF   FEF,W
00B6:  BZ    00D2
00B8:  MOVLW  0A
00BA:  MOVWF  01
00BC:  CLRF   00
00BE:  DECFSZ 00,F
00C0:  BRA    00BE
00C2:  DECFSZ 01,F
00C4:  BRA    00BC
00C6:  MOVLW  5F
00C8:  MOVWF  00
00CA:  DECFSZ 00,F
00CC:  BRA    00CA
00CE:  DECFSZ FEF,F
00D0:  BRA    00B8
00D2:  GOTO   00DC (RETURN)
*
017A:  MOVLW  02
017C:  SUBWF  1E,F
017E:  BNC   0196
0180:  CLRF   FEA
0182:  MOVLW  1E
0184:  MOVWF  FE9
0186:  MOVF   FEF,W
0188:  BZ    0196
018A:  BRA    0192
018C:  BRA    018E
018E:  BRA    0190
0190:  NOP   
0192:  DECFSZ FEF,F
0194:  BRA    018C
0196:  RETURN 0
.................... #use rs232(xmit=PIN_C6, baud=9600) 
*
010A:  BCF    F94.6
010C:  BCF    F8B.6
010E:  MOVLW  08
0110:  MOVWF  01
0112:  BRA    0114
0114:  NOP   
0116:  BSF    01.7
0118:  BRA    0136
011A:  BCF    01.7
011C:  RRCF   26,F
011E:  BTFSC  FD8.0
0120:  BSF    F8B.6
0122:  BTFSS  FD8.0
0124:  BCF    F8B.6
0126:  BSF    01.6
0128:  BRA    0136
012A:  BCF    01.6
012C:  DECFSZ 01,F
012E:  BRA    011C
0130:  BRA    0132
0132:  NOP   
0134:  BSF    F8B.6
0136:  MOVLW  01
0138:  MOVWF  00
013A:  CLRF   FE9
013C:  DECFSZ FE9,F
013E:  BRA    013C
0140:  DECFSZ 00,F
0142:  BRA    013A
0144:  MOVLW  0E
0146:  MOVWF  FE9
0148:  DECFSZ FE9,F
014A:  BRA    0148
014C:  NOP   
014E:  BTFSC  01.7
0150:  BRA    011A
0152:  BTFSC  01.6
0154:  BRA    012A
0156:  RETURN 0
....................  
.................... #define bto PIN_B0 
.................... #define A 33 
.................... #define B 17 
.................... #define C 20 
.................... #define D 12 
.................... #define E 10 
.................... #define F 34 
....................  
.................... long tempo = 65000; 
.................... int cont = 1; 
.................... short ctrl = TRUE; 
.................... short on_off = TRUE; 
....................  
.................... #INT_EXT 
.................... void ext_isr() { 
.................... 	delay_ms(100); 
*
00D6:  MOVLW  64
00D8:  MOVWF  27
00DA:  BRA    00AE
.................... 	clear_interrupt(INT_EXT); 
00DC:  BCF    FF2.1
.................... 	tempo -= 1000; 
00DE:  MOVLW  E8
00E0:  SUBWF  19,F
00E2:  MOVLW  03
00E4:  SUBWFB 1A,F
.................... 	if (tempo == 1000) 
00E6:  MOVF   19,W
00E8:  SUBLW  E8
00EA:  BNZ   00FA
00EC:  MOVF   1A,W
00EE:  SUBLW  03
00F0:  BNZ   00FA
.................... 		tempo = 65000; 
00F2:  MOVLW  FD
00F4:  MOVWF  1A
00F6:  MOVLW  E8
00F8:  MOVWF  19
.................... 	ctrl = TRUE; 
00FA:  BSF    1C.0
.................... } 
....................  
00FC:  BCF    FF2.1
00FE:  GOTO   0060
.................... int main(void) { 
*
024C:  CLRF   FF8
024E:  BCF    FD0.7
0250:  BSF    07.7
0252:  CLRF   FEA
0254:  CLRF   FE9
0256:  BCF    F94.6
0258:  BSF    F8B.6
025A:  MOVLW  FD
025C:  MOVWF  1A
025E:  MOVLW  E8
0260:  MOVWF  19
0262:  MOVLW  01
0264:  MOVWF  1B
0266:  BSF    1C.0
0268:  BSF    1C.1
026A:  BSF    FC1.0
026C:  BSF    FC1.1
026E:  BSF    FC1.2
0270:  BCF    FC1.3
....................  
.................... 	output_c(0); 
0272:  CLRF   F94
0274:  CLRF   F8B
....................  
.................... 	enable_interrupts(INT_EXT_H2L | GLOBAL); 
0276:  MOVLW  D0
0278:  IORWF  FF2,F
027A:  BCF    FF1.6
....................  
.................... 	printf("\fHello"); 
027C:  MOVLW  02
027E:  MOVWF  FF6
0280:  MOVLW  01
0282:  MOVWF  FF7
0284:  BRA    0158
....................  
.................... 	while (TRUE) { 
.................... 		cont <<= 1; 
0286:  BCF    FD8.0
0288:  RLCF   1B,F
.................... 		if (cont == 0b1000) 
028A:  MOVF   1B,W
028C:  SUBLW  08
028E:  BNZ   0294
.................... 			cont = 1; 
0290:  MOVLW  01
0292:  MOVWF  1B
.................... 		output_c(cont); 
0294:  CLRF   F94
0296:  MOVFF  1B,F8B
.................... 		delay_us(tempo); 
029A:  MOVFF  1A,1D
029E:  INCF   1D,F
02A0:  DECF   1D,F
02A2:  BTFSC  FD8.2
02A4:  BRA    02AC
02A6:  SETF   1E
02A8:  RCALL  017A
02AA:  BRA    02A0
02AC:  MOVFF  19,1E
02B0:  RCALL  017A
.................... 		if (ctrl) { 
02B2:  BTFSS  1C.0
02B4:  BRA    02D2
.................... 			ctrl = FALSE; 
02B6:  BCF    1C.0
.................... 			printf("%lu\r\n", tempo); 
02B8:  MOVLW  10
02BA:  MOVWF  FE9
02BC:  MOVFF  1A,1E
02C0:  MOVFF  19,1D
02C4:  BRA    0198
02C6:  MOVLW  0D
02C8:  MOVWF  26
02CA:  RCALL  010A
02CC:  MOVLW  0A
02CE:  MOVWF  26
02D0:  RCALL  010A
.................... 		} 
.................... 	} 
02D2:  BRA    0286
.................... 	return 0; 
02D4:  MOVLW  00
02D6:  MOVWF  01
.................... } 
02D8:  SLEEP 

Configuration Fuses:
   Word  1: 2600   H4 NOOSCSEN
   Word  2: 0E0E   PUT BROWNOUT BORV20 NOWDT WDT128
   Word  3: 0100   CCP2C1
   Word  4: 0081   STVREN NOLVP NODEBUG
   Word  5: C00F   NOPROTECT NOCPB NOCPD
   Word  6: E00F   NOWRT NOWRTC NOWRTB NOWRTD
   Word  7: 400F   NOEBTR NOEBTRB
