CCS PCH C Compiler, Version 4.140, 31805               05-fev-14 16:57

               Filename:   D:\Eletronica\Projetos\BLDC\main.lst

               ROM used:   344 bytes (1%)
                           Largest free fragment is 32420
               RAM used:   30 (2%) at main() level
                           31 (2%) worst case
               Stack:     2 worst case (0 in main + 2 for interrupts)

*
0000:  GOTO   010C
*
0008:  MOVWF  04
000A:  MOVFF  FD8,05
000E:  MOVFF  FE0,06
0012:  MOVLB  0
0014:  MOVFF  FE9,0C
0018:  MOVFF  FEA,07
001C:  MOVFF  FE1,08
0020:  MOVFF  FE2,09
0024:  MOVFF  FD9,0A
0028:  MOVFF  FDA,0B
002C:  MOVFF  FF3,12
0030:  MOVFF  FF4,13
0034:  MOVFF  FFA,14
0038:  MOVFF  FF5,15
003C:  MOVFF  FF6,16
0040:  MOVFF  FF7,17
0044:  MOVFF  00,0E
0048:  MOVFF  01,0F
004C:  MOVFF  02,10
0050:  MOVFF  03,11
0054:  BTFSS  FF2.4
0056:  GOTO   0060
005A:  BTFSC  FF2.1
005C:  GOTO   00D8
0060:  MOVFF  0E,00
0064:  MOVFF  0F,01
0068:  MOVFF  10,02
006C:  MOVFF  11,03
0070:  MOVFF  0C,FE9
0074:  MOVFF  07,FEA
0078:  BSF    07.7
007A:  MOVFF  08,FE1
007E:  MOVFF  09,FE2
0082:  MOVFF  0A,FD9
0086:  MOVFF  0B,FDA
008A:  MOVFF  12,FF3
008E:  MOVFF  13,FF4
0092:  MOVFF  14,FFA
0096:  MOVFF  15,FF5
009A:  MOVFF  16,FF6
009E:  MOVFF  17,FF7
00A2:  MOVF   04,W
00A4:  MOVFF  06,FE0
00A8:  MOVFF  05,FD8
00AC:  RETFIE 0
.................... /* 
....................  * main.c 
....................  * 
....................  *  Created on: 03/02/2014 
....................  *      Author: cuki 
....................  */ 
.................... #include<18F45K20.h> 
.................... //////// Standard Header file for the PIC18F45K20 device //////////////// 
.................... #device PIC18F45K20 
.................... #list 
....................  
....................  
.................... #fuses HS 
....................  
.................... #use delay(clock=15MHz) 
00AE:  CLRF   FEA
00B0:  MOVLW  1E
00B2:  MOVWF  FE9
00B4:  MOVF   FEF,W
00B6:  BZ    00D4
00B8:  MOVLW  04
00BA:  MOVWF  01
00BC:  CLRF   00
00BE:  DECFSZ 00,F
00C0:  BRA    00BE
00C2:  DECFSZ 01,F
00C4:  BRA    00BC
00C6:  MOVLW  DC
00C8:  MOVWF  00
00CA:  DECFSZ 00,F
00CC:  BRA    00CA
00CE:  NOP   
00D0:  DECFSZ FEF,F
00D2:  BRA    00B8
00D4:  GOTO   00DE (RETURN)
.................... #use rs232(xmit=PIN_C6, baud=9600) 
....................  
.................... int cont = 1; 
.................... int cont2 = 0; 
.................... long tempo = 300; 
.................... short ctrl = FALSE; 
.................... short trigger = FALSE; 
....................  
.................... #INT_EXT 
.................... void isr_ext() { 
.................... 	delay_ms(100); 
00D8:  MOVLW  64
00DA:  MOVWF  1E
00DC:  BRA    00AE
.................... 	clear_interrupt(INT_EXT); 
00DE:  BCF    FF2.1
.................... 	ctrl = TRUE; 
00E0:  BSF    1D.0
.................... 	cont <<= 1; 
00E2:  BCF    FD8.0
00E4:  RLCF   19,F
.................... 	if (cont == 8 | !cont) 
00E6:  MOVF   19,W
00E8:  SUBLW  08
00EA:  BZ    00F0
00EC:  MOVLW  00
00EE:  BRA    00F2
00F0:  MOVLW  01
00F2:  MOVWF  1E
00F4:  MOVF   19,F
00F6:  BZ    00FC
00F8:  MOVLW  00
00FA:  BRA    00FE
00FC:  MOVLW  01
00FE:  IORWF  1E,W
0100:  BZ    0106
.................... 		cont = 1; 
0102:  MOVLW  01
0104:  MOVWF  19
.................... } 
....................  
0106:  BCF    FF2.1
0108:  GOTO   0060
.................... int main(void) { 
010C:  CLRF   FF8
010E:  BCF    FD0.7
0110:  BSF    07.7
0112:  CLRF   FEA
0114:  CLRF   FE9
0116:  BCF    F94.6
0118:  BSF    F8B.6
011A:  MOVLW  01
011C:  MOVWF  19
011E:  CLRF   1A
0120:  MOVWF  1C
0122:  MOVLW  2C
0124:  MOVWF  1B
0126:  BCF    1D.0
0128:  BCF    1D.1
012A:  MOVLW  00
012C:  MOVWF  F7E
012E:  BCF    FC1.4
0130:  BCF    FC1.5
0132:  MOVF   F7F,W
0134:  ANDLW  E0
0136:  MOVWF  F7F
0138:  BCF    F79.5
013A:  BCF    F79.4
013C:  CLRF   F7A
013E:  CLRF   F7B
....................  
.................... 	clear_interrupt(INT_EXT); 
0140:  BCF    FF2.1
.................... 	enable_interrupts(INT_EXT); 
0142:  BSF    FF2.4
.................... 	enable_interrupts(GLOBAL); 
0144:  MOVLW  C0
0146:  IORWF  FF2,F
....................  
.................... 	while (TRUE) { 
.................... 		if (ctrl) { 
0148:  BTFSS  1D.0
014A:  BRA    0154
.................... 			ctrl = FALSE; 
014C:  BCF    1D.0
.................... 			output_d(cont); 
014E:  CLRF   F95
0150:  MOVFF  19,F8C
.................... 		} 
.................... 	} 
0154:  BRA    0148
.................... 	return 0; 
0156:  MOVLW  00
0158:  MOVWF  01
.................... } 
....................  
.................... //int cont = 1; 
.................... //int cont2 = 0; 
.................... //long tempo = 300; 
.................... //short ctrl = FALSE; 
.................... //short trigger = FALSE; 
.................... // 
.................... //#INT_EXT 
.................... //void isr_ext() { 
.................... //	clear_interrupt(INT_EXT); 
.................... //	tempo -= 10; 
.................... //	if (!tempo) 
.................... //		tempo = 300; 
.................... //} 
.................... // 
.................... //int main(void) { 
.................... // 
.................... //	clear_interrupt(INT_EXT); 
.................... //	enable_interrupts(INT_EXT); 
.................... //	enable_interrupts(GLOBAL); 
.................... // 
.................... //	while (TRUE) { 
.................... //		cont <<= 1; 
.................... //		if (cont == 8) 
.................... //			cont = 1; 
.................... //		output_d(cont); 
.................... //		delay_ms(tempo); 
.................... //	} 
.................... //	return 0; 
.................... //} 
....................  
015A:  SLEEP 

Configuration Fuses:
   Word  1: C200   HS FCMEN IESO
   Word  2: 1E1E   PUT BROWNOUT BORV18 NOWDT WDT32768
   Word  3: 8F00   CCP2C1 PBADEN LPT1OSC HFOFST MCLR
   Word  4: 0081   STVREN NOLVP NOXINST NODEBUG
   Word  5: C00F   NOPROTECT NOCPB NOCPD
   Word  6: E00F   NOWRT NOWRTC NOWRTB NOWRTD
   Word  7: 400F   NOEBTR NOEBTRB
